target datalayout = "e-m:e-p270:32:32-p271:32:32-p272:64:64-i64:64-i128:128-f80:128-n8:16:32:64-S128"
target triple = "x86_64-pc-linux-gnu"

%class.QString = type { %struct.QArrayDataPointer.0 }
%struct.QArrayDataPointer.0 = type { ptr, ptr, i64 }
%class.QList.1 = type { %struct.QArrayDataPointer.4 }
%struct.QArrayDataPointer.4 = type { ptr, ptr, i64 }
%class.WiresharkMainWindow = type { %class.MainWindow, ptr, %class.CaptureFile, %class.QFont, %class.QMap, ptr, ptr, ptr, ptr, ptr, ptr, %class.QList.9, %class.QPointer, %class.QMap.13, %class.QMap.15, i8, %class.QString, i8, i8, i8, %class.QPoint, %class.QPointer.17 }
%class.MainWindow = type { %class.QMainWindow, %class.QList.1, ptr, ptr, %class.QSplitter, %class.QSplitter, %class.QWidget, %class.QList.5, ptr, ptr, ptr, ptr, ptr, ptr }
%class.QMainWindow = type { %class.QWidget }
%class.QSplitter = type { %class.QFrame }
%class.QFrame = type { %class.QWidget }
%class.QWidget = type { %class.QObject, %class.QPaintDevice.base, ptr }
%class.QObject = type { ptr, %class.QScopedPointer }
%class.QScopedPointer = type { ptr }
%class.QPaintDevice.base = type <{ ptr, i16 }>
%class.QList.5 = type { %struct.QArrayDataPointer.8 }
%struct.QArrayDataPointer.8 = type { ptr, ptr, i64 }
%class.CaptureFile = type { %class.QObject, ptr, %class.QString }
%class.QFont = type <{ %class.QExplicitlySharedDataPointer, i32, [4 x i8] }>
%class.QExplicitlySharedDataPointer = type { ptr }
%class.QMap = type { %"class.QtPrivate::QExplicitlySharedDataPointerV2" }
%"class.QtPrivate::QExplicitlySharedDataPointerV2" = type { ptr }
%class.QList.9 = type { %struct.QArrayDataPointer.12 }
%struct.QArrayDataPointer.12 = type { ptr, ptr, i64 }
%class.QPointer = type { %class.QWeakPointer }
%class.QWeakPointer = type { ptr, ptr }
%class.QMap.13 = type { %"class.QtPrivate::QExplicitlySharedDataPointerV2.14" }
%"class.QtPrivate::QExplicitlySharedDataPointerV2.14" = type { ptr }
%class.QMap.15 = type { %"class.QtPrivate::QExplicitlySharedDataPointerV2.16" }
%"class.QtPrivate::QExplicitlySharedDataPointerV2.16" = type { ptr }
%class.QPoint = type { i32, i32 }
%class.QPointer.17 = type { %class.QWeakPointer }
%class.Ui_WiresharkMainWindow = type { ptr, ptr, ptr, ptr, ptr, ptr, ptr, ptr, ptr, ptr, ptr, ptr, ptr, ptr, ptr, ptr, ptr, ptr, ptr, ptr, ptr, ptr, ptr, ptr, ptr, ptr, ptr, ptr, ptr, ptr, ptr, ptr, ptr, ptr, ptr, ptr, ptr, ptr, ptr, ptr, ptr, ptr, ptr, ptr, ptr, ptr, ptr, ptr, ptr, ptr, ptr, ptr, ptr, ptr, ptr, ptr, ptr, ptr, ptr, ptr, ptr, ptr, ptr, ptr, ptr, ptr, ptr, ptr, ptr, ptr, ptr, ptr, ptr, ptr, ptr, ptr, ptr, ptr, ptr, ptr, ptr, ptr, ptr, ptr, ptr, ptr, ptr, ptr, ptr, ptr, ptr, ptr, ptr, ptr, ptr, ptr, ptr, ptr, ptr, ptr, ptr, ptr, ptr, ptr, ptr, ptr, ptr, ptr, ptr, ptr, ptr, ptr, ptr, ptr, ptr, ptr, ptr, ptr, ptr, ptr, ptr, ptr, ptr, ptr, ptr, ptr, ptr, ptr, ptr, ptr, ptr, ptr, ptr, ptr, ptr, ptr, ptr, ptr, ptr, ptr, ptr, ptr, ptr, ptr, ptr, ptr, ptr, ptr, ptr, ptr, ptr, ptr, ptr, ptr, ptr, ptr, ptr, ptr, ptr, ptr, ptr, ptr, ptr, ptr, ptr, ptr, ptr, ptr, ptr, ptr, ptr, ptr, ptr, ptr, ptr, ptr, ptr, ptr, ptr, ptr, ptr, ptr, ptr, ptr, ptr, ptr, ptr, ptr, ptr, ptr, ptr, ptr, ptr, ptr, ptr, ptr, ptr, ptr, ptr, ptr, ptr, ptr, ptr, ptr, ptr, ptr, ptr, ptr, ptr, ptr, ptr, ptr, ptr, ptr, ptr, ptr, ptr, ptr, ptr, ptr, ptr, ptr, ptr, ptr, ptr, ptr, ptr, ptr, ptr, ptr, ptr, ptr, ptr, ptr, ptr, ptr, ptr, ptr, ptr, ptr, ptr, ptr, ptr, ptr, ptr, ptr, ptr, ptr, ptr, ptr, ptr, ptr, ptr, ptr, ptr, ptr, ptr, ptr, ptr, ptr, ptr, ptr, ptr, ptr, ptr, ptr, ptr, ptr, ptr, ptr, ptr, ptr, ptr, ptr, ptr, ptr, ptr, ptr, ptr, ptr, ptr, ptr, ptr, ptr, ptr, ptr, ptr, ptr, ptr, ptr, ptr, ptr, ptr, ptr, ptr, ptr, ptr, ptr, ptr, ptr, ptr, ptr, ptr, ptr, ptr, ptr, ptr, ptr, ptr, ptr, ptr, ptr, ptr, ptr, ptr, ptr, ptr, ptr, ptr, ptr, ptr, ptr }

; Function Attrs: mustprogress uwtable
define void @_ZN19WiresharkMainWindow21setForCapturedPacketsEb(ptr noundef nonnull align 8 dereferenceable(520) %0, i1 noundef zeroext %1) #0 align 2 {
  %3 = alloca ptr, align 8
  %4 = alloca i8, align 1
  store ptr %0, ptr %3, align 8
  %5 = zext i1 %1 to i8
  store i8 %5, ptr %4, align 1
  %6 = load ptr, ptr %3, align 8
  %7 = getelementptr inbounds %class.WiresharkMainWindow, ptr %6, i32 0, i32 1
  %8 = load ptr, ptr %7, align 8
  %9 = getelementptr inbounds %class.Ui_WiresharkMainWindow, ptr %8, i32 0, i32 42
  %10 = load ptr, ptr %9, align 8
  %11 = load i8, ptr %4, align 1
  %12 = trunc i8 %11 to i1
  call void @_ZN7QAction10setEnabledEb(ptr noundef nonnull align 8 dereferenceable(16) %10, i1 noundef zeroext %12)
  %13 = getelementptr inbounds %class.WiresharkMainWindow, ptr %6, i32 0, i32 1
  %14 = load ptr, ptr %13, align 8
  %15 = getelementptr inbounds %class.Ui_WiresharkMainWindow, ptr %14, i32 0, i32 70
  %16 = load ptr, ptr %15, align 8
  %17 = load i8, ptr %4, align 1
  %18 = trunc i8 %17 to i1
  call void @_ZN7QAction10setEnabledEb(ptr noundef nonnull align 8 dereferenceable(16) %16, i1 noundef zeroext %18)
  %19 = getelementptr inbounds %class.WiresharkMainWindow, ptr %6, i32 0, i32 1
  %20 = load ptr, ptr %19, align 8
  %21 = getelementptr inbounds %class.Ui_WiresharkMainWindow, ptr %20, i32 0, i32 71
  %22 = load ptr, ptr %21, align 8
  %23 = load i8, ptr %4, align 1
  %24 = trunc i8 %23 to i1
  call void @_ZN7QAction10setEnabledEb(ptr noundef nonnull align 8 dereferenceable(16) %22, i1 noundef zeroext %24)
  %25 = getelementptr inbounds %class.WiresharkMainWindow, ptr %6, i32 0, i32 1
  %26 = load ptr, ptr %25, align 8
  %27 = getelementptr inbounds %class.Ui_WiresharkMainWindow, ptr %26, i32 0, i32 72
  %28 = load ptr, ptr %27, align 8
  %29 = load i8, ptr %4, align 1
  %30 = trunc i8 %29 to i1
  call void @_ZN7QAction10setEnabledEb(ptr noundef nonnull align 8 dereferenceable(16) %28, i1 noundef zeroext %30)
  %31 = getelementptr inbounds %class.WiresharkMainWindow, ptr %6, i32 0, i32 1
  %32 = load ptr, ptr %31, align 8
  %33 = getelementptr inbounds %class.Ui_WiresharkMainWindow, ptr %32, i32 0, i32 34
  %34 = load ptr, ptr %33, align 8
  %35 = load i8, ptr %4, align 1
  %36 = trunc i8 %35 to i1
  call void @_ZN7QAction10setEnabledEb(ptr noundef nonnull align 8 dereferenceable(16) %34, i1 noundef zeroext %36)
  %37 = getelementptr inbounds %class.WiresharkMainWindow, ptr %6, i32 0, i32 1
  %38 = load ptr, ptr %37, align 8
  %39 = getelementptr inbounds %class.Ui_WiresharkMainWindow, ptr %38, i32 0, i32 23
  %40 = load ptr, ptr %39, align 8
  %41 = load i8, ptr %4, align 1
  %42 = trunc i8 %41 to i1
  call void @_ZN7QAction10setEnabledEb(ptr noundef nonnull align 8 dereferenceable(16) %40, i1 noundef zeroext %42)
  %43 = getelementptr inbounds %class.WiresharkMainWindow, ptr %6, i32 0, i32 1
  %44 = load ptr, ptr %43, align 8
  %45 = getelementptr inbounds %class.Ui_WiresharkMainWindow, ptr %44, i32 0, i32 22
  %46 = load ptr, ptr %45, align 8
  %47 = load i8, ptr %4, align 1
  %48 = trunc i8 %47 to i1
  call void @_ZN7QAction10setEnabledEb(ptr noundef nonnull align 8 dereferenceable(16) %46, i1 noundef zeroext %48)
  %49 = getelementptr inbounds %class.WiresharkMainWindow, ptr %6, i32 0, i32 1
  %50 = load ptr, ptr %49, align 8
  %51 = getelementptr inbounds %class.Ui_WiresharkMainWindow, ptr %50, i32 0, i32 28
  %52 = load ptr, ptr %51, align 8
  %53 = load i8, ptr %4, align 1
  %54 = trunc i8 %53 to i1
  call void @_ZN7QAction10setEnabledEb(ptr noundef nonnull align 8 dereferenceable(16) %52, i1 noundef zeroext %54)
  %55 = getelementptr inbounds %class.WiresharkMainWindow, ptr %6, i32 0, i32 1
  %56 = load ptr, ptr %55, align 8
  %57 = getelementptr inbounds %class.Ui_WiresharkMainWindow, ptr %56, i32 0, i32 29
  %58 = load ptr, ptr %57, align 8
  %59 = load i8, ptr %4, align 1
  %60 = trunc i8 %59 to i1
  call void @_ZN7QAction10setEnabledEb(ptr noundef nonnull align 8 dereferenceable(16) %58, i1 noundef zeroext %60)
  %61 = getelementptr inbounds %class.WiresharkMainWindow, ptr %6, i32 0, i32 1
  %62 = load ptr, ptr %61, align 8
  %63 = getelementptr inbounds %class.Ui_WiresharkMainWindow, ptr %62, i32 0, i32 24
  %64 = load ptr, ptr %63, align 8
  %65 = load i8, ptr %4, align 1
  %66 = trunc i8 %65 to i1
  call void @_ZN7QAction10setEnabledEb(ptr noundef nonnull align 8 dereferenceable(16) %64, i1 noundef zeroext %66)
  %67 = getelementptr inbounds %class.WiresharkMainWindow, ptr %6, i32 0, i32 1
  %68 = load ptr, ptr %67, align 8
  %69 = getelementptr inbounds %class.Ui_WiresharkMainWindow, ptr %68, i32 0, i32 25
  %70 = load ptr, ptr %69, align 8
  %71 = load i8, ptr %4, align 1
  %72 = trunc i8 %71 to i1
  call void @_ZN7QAction10setEnabledEb(ptr noundef nonnull align 8 dereferenceable(16) %70, i1 noundef zeroext %72)
  %73 = getelementptr inbounds %class.WiresharkMainWindow, ptr %6, i32 0, i32 1
  %74 = load ptr, ptr %73, align 8
  %75 = getelementptr inbounds %class.Ui_WiresharkMainWindow, ptr %74, i32 0, i32 157
  %76 = load ptr, ptr %75, align 8
  %77 = load i8, ptr %4, align 1
  %78 = trunc i8 %77 to i1
  call void @_ZN7QAction10setEnabledEb(ptr noundef nonnull align 8 dereferenceable(16) %76, i1 noundef zeroext %78)
  %79 = getelementptr inbounds %class.WiresharkMainWindow, ptr %6, i32 0, i32 1
  %80 = load ptr, ptr %79, align 8
  %81 = getelementptr inbounds %class.Ui_WiresharkMainWindow, ptr %80, i32 0, i32 158
  %82 = load ptr, ptr %81, align 8
  %83 = load i8, ptr %4, align 1
  %84 = trunc i8 %83 to i1
  call void @_ZN7QAction10setEnabledEb(ptr noundef nonnull align 8 dereferenceable(16) %82, i1 noundef zeroext %84)
  %85 = getelementptr inbounds %class.WiresharkMainWindow, ptr %6, i32 0, i32 1
  %86 = load ptr, ptr %85, align 8
  %87 = getelementptr inbounds %class.Ui_WiresharkMainWindow, ptr %86, i32 0, i32 159
  %88 = load ptr, ptr %87, align 8
  %89 = load i8, ptr %4, align 1
  %90 = trunc i8 %89 to i1
  call void @_ZN7QAction10setEnabledEb(ptr noundef nonnull align 8 dereferenceable(16) %88, i1 noundef zeroext %90)
  %91 = getelementptr inbounds %class.WiresharkMainWindow, ptr %6, i32 0, i32 1
  %92 = load ptr, ptr %91, align 8
  %93 = getelementptr inbounds %class.Ui_WiresharkMainWindow, ptr %92, i32 0, i32 161
  %94 = load ptr, ptr %93, align 8
  %95 = load i8, ptr %4, align 1
  %96 = trunc i8 %95 to i1
  call void @_ZN7QAction10setEnabledEb(ptr noundef nonnull align 8 dereferenceable(16) %94, i1 noundef zeroext %96)
  %97 = getelementptr inbounds %class.WiresharkMainWindow, ptr %6, i32 0, i32 1
  %98 = load ptr, ptr %97, align 8
  %99 = getelementptr inbounds %class.Ui_WiresharkMainWindow, ptr %98, i32 0, i32 91
  %100 = load ptr, ptr %99, align 8
  %101 = load i8, ptr %4, align 1
  %102 = trunc i8 %101 to i1
  call void @_ZN7QAction10setEnabledEb(ptr noundef nonnull align 8 dereferenceable(16) %100, i1 noundef zeroext %102)
  %103 = getelementptr inbounds %class.WiresharkMainWindow, ptr %6, i32 0, i32 1
  %104 = load ptr, ptr %103, align 8
  %105 = getelementptr inbounds %class.Ui_WiresharkMainWindow, ptr %104, i32 0, i32 92
  %106 = load ptr, ptr %105, align 8
  %107 = load i8, ptr %4, align 1
  %108 = trunc i8 %107 to i1
  call void @_ZN7QAction10setEnabledEb(ptr noundef nonnull align 8 dereferenceable(16) %106, i1 noundef zeroext %108)
  %109 = getelementptr inbounds %class.WiresharkMainWindow, ptr %6, i32 0, i32 1
  %110 = load ptr, ptr %109, align 8
  %111 = getelementptr inbounds %class.Ui_WiresharkMainWindow, ptr %110, i32 0, i32 151
  %112 = load ptr, ptr %111, align 8
  %113 = load i8, ptr %4, align 1
  %114 = trunc i8 %113 to i1
  call void @_ZN7QAction10setEnabledEb(ptr noundef nonnull align 8 dereferenceable(16) %112, i1 noundef zeroext %114)
  ret void
}