; Function Attrs: mustprogress uwtable
define void @_ZN19WiresharkMainWindow21setForCapturedPacketsEb(ptr nocapture noundef nonnull readonly align 8 dereferenceable(520) %0, i1 noundef zeroext %1) local_unnamed_addr #0 align 2 {
  %3 = getelementptr inbounds i8, ptr %0, i64 272
  %4 = load ptr, ptr %3, align 8
  %5 = getelementptr inbounds i8, ptr %4, i64 336
  %6 = load ptr, ptr %5, align 8
  tail call void @_ZN7QAction10setEnabledEb(ptr noundef nonnull align 8 dereferenceable(16) %6, i1 noundef zeroext %1)
  %7 = load ptr, ptr %3, align 8
  %8 = getelementptr inbounds i8, ptr %7, i64 560
  %9 = load ptr, ptr %8, align 8
  tail call void @_ZN7QAction10setEnabledEb(ptr noundef nonnull align 8 dereferenceable(16) %9, i1 noundef zeroext %1)
  %10 = load ptr, ptr %3, align 8
  %11 = getelementptr inbounds i8, ptr %10, i64 568
  %12 = load ptr, ptr %11, align 8
  tail call void @_ZN7QAction10setEnabledEb(ptr noundef nonnull align 8 dereferenceable(16) %12, i1 noundef zeroext %1)
  %13 = load ptr, ptr %3, align 8
  %14 = getelementptr inbounds i8, ptr %13, i64 576
  %15 = load ptr, ptr %14, align 8
  tail call void @_ZN7QAction10setEnabledEb(ptr noundef nonnull align 8 dereferenceable(16) %15, i1 noundef zeroext %1)
  %16 = load ptr, ptr %3, align 8
  %17 = getelementptr inbounds i8, ptr %16, i64 272
  %18 = load ptr, ptr %17, align 8
  tail call void @_ZN7QAction10setEnabledEb(ptr noundef nonnull align 8 dereferenceable(16) %18, i1 noundef zeroext %1)
  %19 = load ptr, ptr %3, align 8
  %20 = getelementptr inbounds i8, ptr %19, i64 184
  %21 = load ptr, ptr %20, align 8
  tail call void @_ZN7QAction10setEnabledEb(ptr noundef nonnull align 8 dereferenceable(16) %21, i1 noundef zeroext %1)
  %22 = load ptr, ptr %3, align 8
  %23 = getelementptr inbounds i8, ptr %22, i64 176
  %24 = load ptr, ptr %23, align 8
  tail call void @_ZN7QAction10setEnabledEb(ptr noundef nonnull align 8 dereferenceable(16) %24, i1 noundef zeroext %1)
  %25 = load ptr, ptr %3, align 8
  %26 = getelementptr inbounds i8, ptr %25, i64 224
  %27 = load ptr, ptr %26, align 8
  tail call void @_ZN7QAction10setEnabledEb(ptr noundef nonnull align 8 dereferenceable(16) %27, i1 noundef zeroext %1)
  %28 = load ptr, ptr %3, align 8
  %29 = getelementptr inbounds i8, ptr %28, i64 232
  %30 = load ptr, ptr %29, align 8
  tail call void @_ZN7QAction10setEnabledEb(ptr noundef nonnull align 8 dereferenceable(16) %30, i1 noundef zeroext %1)
  %31 = load ptr, ptr %3, align 8
  %32 = getelementptr inbounds i8, ptr %31, i64 192
  %33 = load ptr, ptr %32, align 8
  tail call void @_ZN7QAction10setEnabledEb(ptr noundef nonnull align 8 dereferenceable(16) %33, i1 noundef zeroext %1)
  %34 = load ptr, ptr %3, align 8
  %35 = getelementptr inbounds i8, ptr %34, i64 200
  %36 = load ptr, ptr %35, align 8
  tail call void @_ZN7QAction10setEnabledEb(ptr noundef nonnull align 8 dereferenceable(16) %36, i1 noundef zeroext %1)
  %37 = load ptr, ptr %3, align 8
  %38 = getelementptr inbounds i8, ptr %37, i64 1256
  %39 = load ptr, ptr %38, align 8
  tail call void @_ZN7QAction10setEnabledEb(ptr noundef nonnull align 8 dereferenceable(16) %39, i1 noundef zeroext %1)
  %40 = load ptr, ptr %3, align 8
  %41 = getelementptr inbounds i8, ptr %40, i64 1264
  %42 = load ptr, ptr %41, align 8
  tail call void @_ZN7QAction10setEnabledEb(ptr noundef nonnull align 8 dereferenceable(16) %42, i1 noundef zeroext %1)
  %43 = load ptr, ptr %3, align 8
  %44 = getelementptr inbounds i8, ptr %43, i64 1272
  %45 = load ptr, ptr %44, align 8
  tail call void @_ZN7QAction10setEnabledEb(ptr noundef nonnull align 8 dereferenceable(16) %45, i1 noundef zeroext %1)
  %46 = load ptr, ptr %3, align 8
  %47 = getelementptr inbounds i8, ptr %46, i64 1288
  %48 = load ptr, ptr %47, align 8
  tail call void @_ZN7QAction10setEnabledEb(ptr noundef nonnull align 8 dereferenceable(16) %48, i1 noundef zeroext %1)
  %49 = load ptr, ptr %3, align 8
  %50 = getelementptr inbounds i8, ptr %49, i64 728
  %51 = load ptr, ptr %50, align 8
  tail call void @_ZN7QAction10setEnabledEb(ptr noundef nonnull align 8 dereferenceable(16) %51, i1 noundef zeroext %1)
  %52 = load ptr, ptr %3, align 8
  %53 = getelementptr inbounds i8, ptr %52, i64 736
  %54 = load ptr, ptr %53, align 8
  tail call void @_ZN7QAction10setEnabledEb(ptr noundef nonnull align 8 dereferenceable(16) %54, i1 noundef zeroext %1)
  %55 = load ptr, ptr %3, align 8
  %56 = getelementptr inbounds i8, ptr %55, i64 1208
  %57 = load ptr, ptr %56, align 8
  tail call void @_ZN7QAction10setEnabledEb(ptr noundef nonnull align 8 dereferenceable(16) %57, i1 noundef zeroext %1)
  ret void
}